; Function Attrs: mustprogress uwtable
define internal noundef i32 @_ZN4LuauL12createNumberEP9lua_State(ptr noundef %0) #2 personality ptr @__gxx_personality_v0 {
  %2 = alloca %"class.Luau::Variant", align 8
  store i32 0, ptr %2, align 8, !tbaa !31
  %3 = getelementptr inbounds nuw i8, ptr %2, i64 8
  store i32 2, ptr %3, align 8, !tbaa !51
  invoke void @_ZN4Luau17allocTypeUserDataEP9lua_StateNS_7VariantIJNS_25TypeFunctionPrimitiveTypeENS_19TypeFunctionAnyTypeENS_23TypeFunctionUnknownTypeENS_21TypeFunctionNeverTypeENS_25TypeFunctionSingletonTypeENS_21TypeFunctionUnionTypeENS_28TypeFunctionIntersectionTypeENS_24TypeFunctionNegationTypeENS_24TypeFunctionFunctionTypeENS_21TypeFunctionTableTypeENS_21TypeFunctionClassTypeENS_23TypeFunctionGenericTypeEEEE(ptr noundef %0, ptr noundef nonnull %2)
          to label %4 unwind label %12

4:                                                ; preds = %1
  %5 = load i32, ptr %2, align 8, !tbaa !31
  %6 = sext i32 %5 to i64
  %7 = getelementptr inbounds [12 x ptr], ptr @_ZN4Luau7VariantIJNS_25TypeFunctionPrimitiveTypeENS_19TypeFunctionAnyTypeENS_23TypeFunctionUnknownTypeENS_21TypeFunctionNeverTypeENS_25TypeFunctionSingletonTypeENS_21TypeFunctionUnionTypeENS_28TypeFunctionIntersectionTypeENS_24TypeFunctionNegationTypeENS_24TypeFunctionFunctionTypeENS_21TypeFunctionTableTypeENS_21TypeFunctionClassTypeENS_23TypeFunctionGenericTypeEEE9tableDtorE, i64 0, i64 %6
  %8 = load ptr, ptr %7, align 8, !tbaa !33
  invoke void %8(ptr noundef nonnull %3)
          to label %_ZN4Luau7VariantIJNS_25TypeFunctionPrimitiveTypeENS_19TypeFunctionAnyTypeENS_23TypeFunctionUnknownTypeENS_21TypeFunctionNeverTypeENS_25TypeFunctionSingletonTypeENS_21TypeFunctionUnionTypeENS_28TypeFunctionIntersectionTypeENS_24TypeFunctionNegationTypeENS_24TypeFunctionFunctionTypeENS_21TypeFunctionTableTypeENS_21TypeFunctionClassTypeENS_23TypeFunctionGenericTypeEEED2Ev.exit unwind label %9

9:                                                ; preds = %4
  %10 = landingpad { ptr, i32 }
          catch ptr null
  %11 = extractvalue { ptr, i32 } %10, 0
  call void @__clang_call_terminate(ptr %11) #28
  unreachable

_ZN4Luau7VariantIJNS_25TypeFunctionPrimitiveTypeENS_19TypeFunctionAnyTypeENS_23TypeFunctionUnknownTypeENS_21TypeFunctionNeverTypeENS_25TypeFunctionSingletonTypeENS_21TypeFunctionUnionTypeENS_28TypeFunctionIntersectionTypeENS_24TypeFunctionNegationTypeENS_24TypeFunctionFunctionTypeENS_21TypeFunctionTableTypeENS_21TypeFunctionClassTypeENS_23TypeFunctionGenericTypeEEED2Ev.exit: ; preds = %4
  ret i32 1

12:                                               ; preds = %1
  %13 = landingpad { ptr, i32 }
          cleanup
  %14 = load i32, ptr %2, align 8, !tbaa !31
  %15 = sext i32 %14 to i64
  %16 = getelementptr inbounds [12 x ptr], ptr @_ZN4Luau7VariantIJNS_25TypeFunctionPrimitiveTypeENS_19TypeFunctionAnyTypeENS_23TypeFunctionUnknownTypeENS_21TypeFunctionNeverTypeENS_25TypeFunctionSingletonTypeENS_21TypeFunctionUnionTypeENS_28TypeFunctionIntersectionTypeENS_24TypeFunctionNegationTypeENS_24TypeFunctionFunctionTypeENS_21TypeFunctionTableTypeENS_21TypeFunctionClassTypeENS_23TypeFunctionGenericTypeEEE9tableDtorE, i64 0, i64 %15
  %17 = load ptr, ptr %16, align 8, !tbaa !33
  invoke void %17(ptr noundef nonnull %3)
          to label %_ZN4Luau7VariantIJNS_25TypeFunctionPrimitiveTypeENS_19TypeFunctionAnyTypeENS_23TypeFunctionUnknownTypeENS_21TypeFunctionNeverTypeENS_25TypeFunctionSingletonTypeENS_21TypeFunctionUnionTypeENS_28TypeFunctionIntersectionTypeENS_24TypeFunctionNegationTypeENS_24TypeFunctionFunctionTypeENS_21TypeFunctionTableTypeENS_21TypeFunctionClassTypeENS_23TypeFunctionGenericTypeEEED2Ev.exit2 unwind label %18

18:                                               ; preds = %12
  %19 = landingpad { ptr, i32 }
          catch ptr null
  %20 = extractvalue { ptr, i32 } %19, 0
  call void @__clang_call_terminate(ptr %20) #28
  unreachable

_ZN4Luau7VariantIJNS_25TypeFunctionPrimitiveTypeENS_19TypeFunctionAnyTypeENS_23TypeFunctionUnknownTypeENS_21TypeFunctionNeverTypeENS_25TypeFunctionSingletonTypeENS_21TypeFunctionUnionTypeENS_28TypeFunctionIntersectionTypeENS_24TypeFunctionNegationTypeENS_24TypeFunctionFunctionTypeENS_21TypeFunctionTableTypeENS_21TypeFunctionClassTypeENS_23TypeFunctionGenericTypeEEED2Ev.exit2: ; preds = %12
  resume { ptr, i32 } %13
}